target datalayout = "e-m:e-p270:32:32-p271:32:32-p272:64:64-i64:64-i128:128-f80:128-n8:16:32:64-S128"
target triple = "x86_64-pc-linux-gnu"

%struct.Vec_Int_t_ = type { i32, i32, ptr }
%struct.Gia_Man_t_ = type { ptr, ptr, i32, i32, i32, i32, ptr, ptr, i32, i32, i32, ptr, ptr, %struct.Vec_Int_t_, %struct.Vec_Int_t_, i32, i32, i32, %struct.Vec_Int_t_, ptr, ptr, ptr, i32, i32, i32, i32, ptr, ptr, ptr, ptr, ptr, i32, i32, ptr, i32, ptr, ptr, ptr, ptr, ptr, ptr, ptr, ptr, ptr, ptr, ptr, ptr, ptr, ptr, ptr, ptr, ptr, ptr, %struct.Vec_Int_t_, %struct.Vec_Int_t_, ptr, ptr, ptr, ptr, ptr, ptr, ptr, ptr, ptr, ptr, ptr, ptr, ptr, ptr, ptr, ptr, ptr, ptr, ptr, ptr, ptr, i32, float, float, ptr, ptr, i32, ptr, ptr, ptr, ptr, ptr, ptr, ptr, ptr, ptr, ptr, ptr, ptr, ptr, ptr, ptr, i64, i64, ptr, ptr, i32, i32, i32, i32, i32, i32, i32, i32, i32, i32, i32, i32, ptr, ptr, ptr, ptr, ptr, ptr, ptr, ptr, i32, i32, i32, ptr, i32, i32, ptr, ptr, ptr, ptr, ptr, ptr, i32, i32, ptr, %struct.Vec_Int_t_, %struct.Vec_Int_t_, %struct.Vec_Int_t_, ptr, ptr, ptr, i32, i32, i32, i32, ptr, ptr, ptr, ptr, ptr }
%struct.Jf_Par_t_ = type { i32, i32, i32, i32, i32, i32, i32, i32, i32, i32, i32, i32, i32, i32, i32, i32, i32, i32, i32, i32, i32, i32, i32, i32, i32, i32, i32, i32, i32, i32, i32, i32, i32, i32, i32, i32, i32, i32, i32, i32, i64, i64, i64, i64, i64, i64, i64, i64, i32, float, float, float, float, ptr, ptr }

; Function Attrs: nounwind uwtable
define void @Mf_ManSetDefaultPars(ptr noundef %0) #0 {
  %2 = alloca ptr, align 8
  store ptr %0, ptr %2, align 8, !tbaa !216
  %3 = load ptr, ptr %2, align 8, !tbaa !216
  call void @llvm.memset.p0.i64(ptr align 8 %3, i8 0, i64 264, i1 false)
  %4 = load ptr, ptr %2, align 8, !tbaa !216
  %5 = getelementptr inbounds nuw %struct.Jf_Par_t_, ptr %4, i32 0, i32 0
  store i32 6, ptr %5, align 8, !tbaa !69
  %6 = load ptr, ptr %2, align 8, !tbaa !216
  %7 = getelementptr inbounds nuw %struct.Jf_Par_t_, ptr %6, i32 0, i32 1
  store i32 8, ptr %7, align 4, !tbaa !128
  %8 = load ptr, ptr %2, align 8, !tbaa !216
  %9 = getelementptr inbounds nuw %struct.Jf_Par_t_, ptr %8, i32 0, i32 2
  store i32 0, ptr %9, align 8, !tbaa !231
  %10 = load ptr, ptr %2, align 8, !tbaa !216
  %11 = getelementptr inbounds nuw %struct.Jf_Par_t_, ptr %10, i32 0, i32 3
  store i32 2, ptr %11, align 4, !tbaa !232
  %12 = load ptr, ptr %2, align 8, !tbaa !216
  %13 = getelementptr inbounds nuw %struct.Jf_Par_t_, ptr %12, i32 0, i32 4
  store i32 1, ptr %13, align 8, !tbaa !233
  %14 = load ptr, ptr %2, align 8, !tbaa !216
  %15 = getelementptr inbounds nuw %struct.Jf_Par_t_, ptr %14, i32 0, i32 5
  store i32 0, ptr %15, align 4, !tbaa !175
  %16 = load ptr, ptr %2, align 8, !tbaa !216
  %17 = getelementptr inbounds nuw %struct.Jf_Par_t_, ptr %16, i32 0, i32 6
  store i32 3, ptr %17, align 8, !tbaa !234
  %18 = load ptr, ptr %2, align 8, !tbaa !216
  %19 = getelementptr inbounds nuw %struct.Jf_Par_t_, ptr %18, i32 0, i32 7
  store i32 1, ptr %19, align 4, !tbaa !189
  %20 = load ptr, ptr %2, align 8, !tbaa !216
  %21 = getelementptr inbounds nuw %struct.Jf_Par_t_, ptr %20, i32 0, i32 9
  store i32 5, ptr %21, align 4, !tbaa !235
  %22 = load ptr, ptr %2, align 8, !tbaa !216
  %23 = getelementptr inbounds nuw %struct.Jf_Par_t_, ptr %22, i32 0, i32 13
  store i32 -1, ptr %23, align 4, !tbaa !174
  %24 = load ptr, ptr %2, align 8, !tbaa !216
  %25 = getelementptr inbounds nuw %struct.Jf_Par_t_, ptr %24, i32 0, i32 14
  store i32 0, ptr %25, align 8, !tbaa !236
  %26 = load ptr, ptr %2, align 8, !tbaa !216
  %27 = getelementptr inbounds nuw %struct.Jf_Par_t_, ptr %26, i32 0, i32 18
  store i32 1, ptr %27, align 8, !tbaa !188
  %28 = load ptr, ptr %2, align 8, !tbaa !216
  %29 = getelementptr inbounds nuw %struct.Jf_Par_t_, ptr %28, i32 0, i32 21
  store i32 1, ptr %29, align 4, !tbaa !237
  %30 = load ptr, ptr %2, align 8, !tbaa !216
  %31 = getelementptr inbounds nuw %struct.Jf_Par_t_, ptr %30, i32 0, i32 22
  store i32 0, ptr %31, align 8, !tbaa !142
  %32 = load ptr, ptr %2, align 8, !tbaa !216
  %33 = getelementptr inbounds nuw %struct.Jf_Par_t_, ptr %32, i32 0, i32 24
  store i32 0, ptr %33, align 8, !tbaa !160
  %34 = load ptr, ptr %2, align 8, !tbaa !216
  %35 = getelementptr inbounds nuw %struct.Jf_Par_t_, ptr %34, i32 0, i32 25
  store i32 0, ptr %35, align 4, !tbaa !161
  %36 = load ptr, ptr %2, align 8, !tbaa !216
  %37 = getelementptr inbounds nuw %struct.Jf_Par_t_, ptr %36, i32 0, i32 29
  store i32 0, ptr %37, align 4, !tbaa !238
  %38 = load ptr, ptr %2, align 8, !tbaa !216
  %39 = getelementptr inbounds nuw %struct.Jf_Par_t_, ptr %38, i32 0, i32 34
  store i32 0, ptr %39, align 8, !tbaa !239
  %40 = load ptr, ptr %2, align 8, !tbaa !216
  %41 = getelementptr inbounds nuw %struct.Jf_Par_t_, ptr %40, i32 0, i32 35
  store i32 0, ptr %41, align 4, !tbaa !240
  %42 = load ptr, ptr %2, align 8, !tbaa !216
  %43 = getelementptr inbounds nuw %struct.Jf_Par_t_, ptr %42, i32 0, i32 36
  store i32 10, ptr %43, align 8, !tbaa !241
  %44 = load ptr, ptr %2, align 8, !tbaa !216
  %45 = getelementptr inbounds nuw %struct.Jf_Par_t_, ptr %44, i32 0, i32 37
  store i32 16, ptr %45, align 4, !tbaa !242
  ret void
}

; Function Attrs: nounwind uwtable
define ptr @Mf_ManGenerateCnf(ptr noundef %0, i32 noundef %1, i32 noundef %2, i32 noundef %3, i32 noundef %4, i32 noundef %5) #0 {
  %7 = alloca ptr, align 8
  %8 = alloca i32, align 4
  %9 = alloca i32, align 4
  %10 = alloca i32, align 4
  %11 = alloca i32, align 4
  %12 = alloca i32, align 4
  %13 = alloca ptr, align 8
  %14 = alloca %struct.Jf_Par_t_, align 8
  %15 = alloca ptr, align 8
  store ptr %0, ptr %7, align 8, !tbaa !75
  store i32 %1, ptr %8, align 4, !tbaa !8
  store i32 %2, ptr %9, align 4, !tbaa !8
  store i32 %3, ptr %10, align 4, !tbaa !8
  store i32 %4, ptr %11, align 4, !tbaa !8
  store i32 %5, ptr %12, align 4, !tbaa !8
  call void @llvm.lifetime.start.p0(i64 8, ptr %13) #14
  call void @llvm.lifetime.start.p0(i64 264, ptr %14) #14
  call void @llvm.lifetime.start.p0(i64 8, ptr %15) #14
  store ptr %14, ptr %15, align 8, !tbaa !216
  %16 = load ptr, ptr %15, align 8, !tbaa !216
  call void @Mf_ManSetDefaultPars(ptr noundef %16)
  %17 = load ptr, ptr %15, align 8, !tbaa !216
  %18 = getelementptr inbounds nuw %struct.Jf_Par_t_, ptr %17, i32 0, i32 24
  store i32 1, ptr %18, align 8, !tbaa !160
  %19 = load i32, ptr %9, align 4, !tbaa !8
  %20 = icmp ne i32 %19, 0
  %21 = xor i1 %20, true
  %22 = zext i1 %21 to i32
  %23 = load ptr, ptr %15, align 8, !tbaa !216
  %24 = getelementptr inbounds nuw %struct.Jf_Par_t_, ptr %23, i32 0, i32 21
  store i32 %22, ptr %24, align 4, !tbaa !237
  %25 = load i32, ptr %8, align 4, !tbaa !8
  %26 = load ptr, ptr %15, align 8, !tbaa !216
  %27 = getelementptr inbounds nuw %struct.Jf_Par_t_, ptr %26, i32 0, i32 0
  store i32 %25, ptr %27, align 8, !tbaa !69
  %28 = load i32, ptr %9, align 4, !tbaa !8
  %29 = load ptr, ptr %15, align 8, !tbaa !216
  %30 = getelementptr inbounds nuw %struct.Jf_Par_t_, ptr %29, i32 0, i32 26
  store i32 %28, ptr %30, align 8, !tbaa !274
  %31 = load i32, ptr %10, align 4, !tbaa !8
  %32 = load ptr, ptr %15, align 8, !tbaa !216
  %33 = getelementptr inbounds nuw %struct.Jf_Par_t_, ptr %32, i32 0, i32 27
  store i32 %31, ptr %33, align 4, !tbaa !275
  %34 = load i32, ptr %11, align 4, !tbaa !8
  %35 = load ptr, ptr %15, align 8, !tbaa !216
  %36 = getelementptr inbounds nuw %struct.Jf_Par_t_, ptr %35, i32 0, i32 28
  store i32 %34, ptr %36, align 8, !tbaa !110
  %37 = load i32, ptr %12, align 4, !tbaa !8
  %38 = load ptr, ptr %15, align 8, !tbaa !216
  %39 = getelementptr inbounds nuw %struct.Jf_Par_t_, ptr %38, i32 0, i32 34
  store i32 %37, ptr %39, align 8, !tbaa !239
  %40 = load ptr, ptr %7, align 8, !tbaa !75
  %41 = load ptr, ptr %15, align 8, !tbaa !216
  %42 = call ptr @Mf_ManPerformMapping(ptr noundef %40, ptr noundef %41)
  store ptr %42, ptr %13, align 8, !tbaa !75
  call void @Gia_ManStopP(ptr noundef %13)
  %43 = load ptr, ptr %7, align 8, !tbaa !75
  %44 = getelementptr inbounds nuw %struct.Gia_Man_t_, ptr %43, i32 0, i32 99
  %45 = load ptr, ptr %44, align 8, !tbaa !276
  call void @llvm.lifetime.end.p0(i64 8, ptr %15) #14
  call void @llvm.lifetime.end.p0(i64 264, ptr %14) #14
  call void @llvm.lifetime.end.p0(i64 8, ptr %13) #14
  ret ptr %45
}