; Function Attrs: nounwind uwtable
define ptr @Mf_ManGenerateCnf(ptr noundef %0, i32 noundef %1, i32 noundef %2, i32 noundef %3, i32 noundef %4, i32 noundef %5) local_unnamed_addr #0 {
  %7 = alloca ptr, align 8
  %8 = alloca %struct.Jf_Par_t_, align 8
  call void @llvm.lifetime.start.p0(i64 8, ptr nonnull %7) #29
  call void @llvm.lifetime.start.p0(i64 264, ptr nonnull %8) #29
  %9 = getelementptr inbounds nuw i8, ptr %8, i64 32
  call void @llvm.memset.p0.i64(ptr noundef nonnull align 8 dereferenceable(264) %9, i8 0, i64 232, i1 false)
  %10 = getelementptr inbounds nuw i8, ptr %8, i64 4
  store i32 8, ptr %10, align 4, !tbaa !135
  %11 = getelementptr inbounds nuw i8, ptr %8, i64 8
  store i32 0, ptr %11, align 8, !tbaa !258
  %12 = getelementptr inbounds nuw i8, ptr %8, i64 12
  store i32 2, ptr %12, align 4, !tbaa !259
  %13 = getelementptr inbounds nuw i8, ptr %8, i64 16
  store i32 1, ptr %13, align 8, !tbaa !260
  %14 = getelementptr inbounds nuw i8, ptr %8, i64 20
  store i32 0, ptr %14, align 4, !tbaa !207
  %15 = getelementptr inbounds nuw i8, ptr %8, i64 24
  store i32 3, ptr %15, align 8, !tbaa !261
  %16 = getelementptr inbounds nuw i8, ptr %8, i64 28
  store i32 1, ptr %16, align 4, !tbaa !154
  %17 = getelementptr inbounds nuw i8, ptr %8, i64 36
  store i32 5, ptr %17, align 4, !tbaa !262
  %18 = getelementptr inbounds nuw i8, ptr %8, i64 52
  store i32 -1, ptr %18, align 4, !tbaa !206
  %19 = getelementptr inbounds nuw i8, ptr %8, i64 72
  store i32 1, ptr %19, align 8, !tbaa !153
  %20 = getelementptr inbounds nuw i8, ptr %8, i64 84
  %21 = getelementptr inbounds nuw i8, ptr %8, i64 96
  %22 = getelementptr inbounds nuw i8, ptr %8, i64 116
  store i32 0, ptr %22, align 4, !tbaa !264
  %23 = getelementptr inbounds nuw i8, ptr %8, i64 144
  store i32 10, ptr %23, align 8, !tbaa !266
  %24 = getelementptr inbounds nuw i8, ptr %8, i64 148
  store i32 16, ptr %24, align 4, !tbaa !267
  store i32 1, ptr %21, align 8, !tbaa !151
  %.not = icmp eq i32 %2, 0
  %25 = zext i1 %.not to i32
  store i32 %25, ptr %20, align 4, !tbaa !263
  store i32 %1, ptr %8, align 8, !tbaa !87
  %26 = getelementptr inbounds nuw i8, ptr %8, i64 104
  store i32 %2, ptr %26, align 8, !tbaa !192
  %27 = getelementptr inbounds nuw i8, ptr %8, i64 108
  store i32 %3, ptr %27, align 4, !tbaa !301
  %28 = getelementptr inbounds nuw i8, ptr %8, i64 112
  store i32 %4, ptr %28, align 8, !tbaa !119
  %29 = getelementptr inbounds nuw i8, ptr %8, i64 136
  store i32 %5, ptr %29, align 8, !tbaa !268
  %30 = call ptr @Mf_ManPerformMapping(ptr noundef %0, ptr noundef nonnull %8)
  store ptr %30, ptr %7, align 8, !tbaa !303
  call void @Gia_ManStopP(ptr noundef nonnull %7) #29
  %31 = getelementptr inbounds nuw i8, ptr %0, i64 768
  %32 = load ptr, ptr %31, align 8, !tbaa !302
  call void @llvm.lifetime.end.p0(i64 264, ptr nonnull %8) #29
  call void @llvm.lifetime.end.p0(i64 8, ptr nonnull %7) #29
  ret ptr %32
}